; Function Attrs: nounwind uwtable
define hidden i64 @Wayland_GetTouchTimestamp(ptr noundef readonly captures(none) %0, i32 noundef %1) local_unnamed_addr #0 {
  %3 = load i32, ptr @Wayland_EventTimestampMSToNS.last, align 4
  %4 = icmp ult i32 %1, %3
  %.pre.i = load i64, ptr @Wayland_EventTimestampMSToNS.timestamp_offset, align 8
  br i1 %4, label %5, label %Wayland_EventTimestampMSToNS.exit

5:                                                ; preds = %2
  %6 = add i64 %.pre.i, 4294967296000000
  store i64 %6, ptr @Wayland_EventTimestampMSToNS.timestamp_offset, align 8
  br label %Wayland_EventTimestampMSToNS.exit

Wayland_EventTimestampMSToNS.exit:                ; preds = %2, %5
  %7 = phi i64 [ %6, %5 ], [ %.pre.i, %2 ]
  store i32 %1, ptr @Wayland_EventTimestampMSToNS.last, align 4
  %8 = zext i32 %1 to i64
  %9 = mul nuw nsw i64 %8, 1000000
  %10 = add i64 %7, %9
  %11 = getelementptr inbounds nuw i8, ptr %0, i64 456
  %12 = load ptr, ptr %11, align 8
  %.not = icmp eq ptr %12, null
  br i1 %.not, label %16, label %13

13:                                               ; preds = %Wayland_EventTimestampMSToNS.exit
  %14 = getelementptr inbounds nuw i8, ptr %0, i64 464
  %15 = load i64, ptr %14, align 8
  br label %16

16:                                               ; preds = %Wayland_EventTimestampMSToNS.exit, %13
  %17 = phi i64 [ %15, %13 ], [ %10, %Wayland_EventTimestampMSToNS.exit ]
  %18 = tail call i64 @SDL_GetTicksNS_REAL() #12
  %19 = load i64, ptr @Wayland_AdjustEventTimestampBase.timestamp_offset, align 8
  %.not.not.i = icmp eq i64 %19, 0
  %20 = sub i64 %18, %17
  %21 = select i1 %.not.not.i, i64 %20, i64 %19
  %22 = add i64 %21, %17
  %.not.i = icmp ugt i64 %22, %18
  %23 = or i1 %.not.not.i, %.not.i
  br i1 %23, label %24, label %Wayland_AdjustEventTimestampBase.exit

24:                                               ; preds = %16
  %simplifycfg.merge.i = select i1 %.not.i, i64 %20, i64 %21
  store i64 %simplifycfg.merge.i, ptr @Wayland_AdjustEventTimestampBase.timestamp_offset, align 8
  br label %Wayland_AdjustEventTimestampBase.exit

Wayland_AdjustEventTimestampBase.exit:            ; preds = %16, %24
  %.0.i = tail call i64 @llvm.umin.i64(i64 %22, i64 %18)
  ret i64 %.0.i
}